; Function Attrs: nofree norecurse nosync nounwind memory(read, inaccessiblemem: none) uwtable
define internal i32 @nsse16_c(ptr noundef readonly captures(address_is_null) %0, ptr noundef readonly captures(none) %1, ptr noundef readonly captures(none) %2, i64 noundef %3, i32 noundef %4) #8 {
  %6 = icmp sgt i32 %4, 0
  br i1 %6, label %.preheader113, label %._crit_edge

.preheader113:                                    ; preds = %5, %.loopexit
  %.0122 = phi i32 [ %18, %.loopexit ], [ 0, %5 ]
  %.094121 = phi i32 [ %.195, %.loopexit ], [ 0, %5 ]
  %.096120 = phi i32 [ %16, %.loopexit ], [ 0, %5 ]
  %.099119 = phi ptr [ %54, %.loopexit ], [ %1, %5 ]
  %.0100118 = phi ptr [ %55, %.loopexit ], [ %2, %5 ]
  br label %7

7:                                                ; preds = %.preheader113, %7
  %indvars.iv = phi i64 [ 0, %.preheader113 ], [ %indvars.iv.next, %7 ]
  %.197114 = phi i32 [ %.096120, %.preheader113 ], [ %16, %7 ]
  %8 = getelementptr inbounds nuw i8, ptr %.099119, i64 %indvars.iv
  %9 = load i8, ptr %8, align 1, !tbaa !20
  %10 = zext i8 %9 to i32
  %11 = getelementptr inbounds nuw i8, ptr %.0100118, i64 %indvars.iv
  %12 = load i8, ptr %11, align 1, !tbaa !20
  %13 = zext i8 %12 to i32
  %14 = sub nsw i32 %10, %13
  %15 = mul nsw i32 %14, %14
  %16 = add nsw i32 %15, %.197114
  %indvars.iv.next = add nuw nsw i64 %indvars.iv, 1
  %exitcond.not = icmp eq i64 %indvars.iv.next, 16
  br i1 %exitcond.not, label %17, label %7, !llvm.loop !106

17:                                               ; preds = %7
  %18 = add nuw nsw i32 %.0122, 1
  %19 = icmp slt i32 %18, %4
  br i1 %19, label %.preheader.preheader, label %.loopexit

.preheader.preheader:                             ; preds = %17
  %.pre = load i8, ptr %.099119, align 1, !tbaa !20
  %.pre131 = load i8, ptr %.0100118, align 1, !tbaa !20
  br label %.preheader

.preheader:                                       ; preds = %.preheader.preheader, %.preheader
  %20 = phi i8 [ %.pre131, %.preheader.preheader ], [ %43, %.preheader ]
  %21 = phi i8 [ %.pre, %.preheader.preheader ], [ %28, %.preheader ]
  %indvars.iv126 = phi i64 [ 0, %.preheader.preheader ], [ %indvars.iv.next127, %.preheader ]
  %.2116 = phi i32 [ %.094121, %.preheader.preheader ], [ %53, %.preheader ]
  %22 = zext i8 %21 to i32
  %23 = add nsw i64 %3, %indvars.iv126
  %24 = getelementptr inbounds i8, ptr %.099119, i64 %23
  %25 = load i8, ptr %24, align 1, !tbaa !20
  %26 = zext i8 %25 to i32
  %indvars.iv.next127 = add nuw nsw i64 %indvars.iv126, 1
  %27 = getelementptr inbounds nuw i8, ptr %.099119, i64 %indvars.iv.next127
  %28 = load i8, ptr %27, align 1, !tbaa !20
  %29 = zext i8 %28 to i32
  %30 = add nsw i64 %23, 1
  %31 = getelementptr inbounds i8, ptr %.099119, i64 %30
  %32 = load i8, ptr %31, align 1, !tbaa !20
  %33 = zext i8 %32 to i32
  %34 = add nuw nsw i32 %26, %29
  %35 = sub nsw i32 %22, %34
  %36 = add nsw i32 %35, %33
  %37 = tail call i32 @llvm.abs.i32(i32 %36, i1 true)
  %38 = zext i8 %20 to i32
  %39 = getelementptr inbounds i8, ptr %.0100118, i64 %23
  %40 = load i8, ptr %39, align 1, !tbaa !20
  %41 = zext i8 %40 to i32
  %42 = getelementptr inbounds nuw i8, ptr %.0100118, i64 %indvars.iv.next127
  %43 = load i8, ptr %42, align 1, !tbaa !20
  %44 = zext i8 %43 to i32
  %45 = getelementptr inbounds i8, ptr %.0100118, i64 %30
  %46 = load i8, ptr %45, align 1, !tbaa !20
  %47 = zext i8 %46 to i32
  %48 = add nuw nsw i32 %41, %44
  %49 = sub nsw i32 %38, %48
  %50 = add nsw i32 %49, %47
  %51 = tail call i32 @llvm.abs.i32(i32 %50, i1 true)
  %52 = add i32 %37, %.2116
  %53 = sub i32 %52, %51
  %exitcond129.not = icmp eq i64 %indvars.iv.next127, 15
  br i1 %exitcond129.not, label %.loopexit, label %.preheader, !llvm.loop !107

.loopexit:                                        ; preds = %.preheader, %17
  %.195 = phi i32 [ %.094121, %17 ], [ %53, %.preheader ]
  %54 = getelementptr inbounds i8, ptr %.099119, i64 %3
  %55 = getelementptr inbounds i8, ptr %.0100118, i64 %3
  %exitcond130.not = icmp eq i32 %18, %4
  br i1 %exitcond130.not, label %._crit_edge, label %.preheader113, !llvm.loop !108

._crit_edge:                                      ; preds = %.loopexit, %5
  %.096.lcssa = phi i32 [ 0, %5 ], [ %16, %.loopexit ]
  %.094.lcssa = phi i32 [ 0, %5 ], [ %.195, %.loopexit ]
  %.not = icmp eq ptr %0, null
  %56 = tail call i32 @llvm.abs.i32(i32 %.094.lcssa, i1 true)
  br i1 %.not, label %63, label %57

57:                                               ; preds = %._crit_edge
  %58 = getelementptr inbounds nuw i8, ptr %0, i64 472
  %59 = load ptr, ptr %58, align 8, !tbaa !109
  %60 = getelementptr inbounds nuw i8, ptr %59, i64 240
  %61 = load i32, ptr %60, align 8, !tbaa !110
  %62 = mul nsw i32 %61, %56
  br label %65

63:                                               ; preds = %._crit_edge
  %64 = shl nsw i32 %56, 3
  br label %65

65:                                               ; preds = %63, %57
  %.pn = phi i32 [ %62, %57 ], [ %64, %63 ]
  %.098 = add nsw i32 %.pn, %.096.lcssa
  ret i32 %.098
}